; Function Attrs: mustprogress uwtable
define dso_local noundef zeroext i1 @_ZN21cmGeneratorExpression17IsValidTargetNameERKNSt7__cxx1112basic_stringIcSt11char_traitsIcESaIcEEE(ptr noundef nonnull align 8 dereferenceable(32) %0) local_unnamed_addr #5 align 2 personality ptr @__gxx_personality_v0 {
  %2 = load atomic i8, ptr @_ZGVZN21cmGeneratorExpression17IsValidTargetNameERKNSt7__cxx1112basic_stringIcSt11char_traitsIcESaIcEEEE19targetNameValidator acquire, align 8
  %3 = icmp eq i8 %2, 0
  br i1 %3, label %4, label %9, !prof !85

4:                                                ; preds = %1
  %5 = tail call i32 @__cxa_guard_acquire(ptr nonnull @_ZGVZN21cmGeneratorExpression17IsValidTargetNameERKNSt7__cxx1112basic_stringIcSt11char_traitsIcESaIcEEEE19targetNameValidator) #20
  %.not = icmp eq i32 %5, 0
  br i1 %.not, label %9, label %6

6:                                                ; preds = %4
  store ptr null, ptr getelementptr inbounds nuw (i8, ptr @_ZZN21cmGeneratorExpression17IsValidTargetNameERKNSt7__cxx1112basic_stringIcSt11char_traitsIcESaIcEEEE19targetNameValidator, i64 528), align 8
  store ptr null, ptr getelementptr inbounds nuw (i8, ptr @_ZZN21cmGeneratorExpression17IsValidTargetNameERKNSt7__cxx1112basic_stringIcSt11char_traitsIcESaIcEEEE19targetNameValidator, i64 544), align 8
  store i32 0, ptr getelementptr inbounds nuw (i8, ptr @_ZZN21cmGeneratorExpression17IsValidTargetNameERKNSt7__cxx1112basic_stringIcSt11char_traitsIcESaIcEEEE19targetNameValidator, i64 552), align 8
  tail call void @llvm.memset.p0.i64(ptr noundef nonnull align 8 dereferenceable(522) @_ZZN21cmGeneratorExpression17IsValidTargetNameERKNSt7__cxx1112basic_stringIcSt11char_traitsIcESaIcEEEE19targetNameValidator, i8 0, i64 522, i1 false)
  %7 = invoke noundef zeroext i1 @_ZN5cmsys17RegularExpression7compileEPKc(ptr noundef nonnull align 8 dereferenceable(556) @_ZZN21cmGeneratorExpression17IsValidTargetNameERKNSt7__cxx1112basic_stringIcSt11char_traitsIcESaIcEEEE19targetNameValidator, ptr noundef nonnull @.str.4)
          to label %_ZN5cmsys17RegularExpressionC2EPKc.exit unwind label %12

_ZN5cmsys17RegularExpressionC2EPKc.exit:          ; preds = %6
  %8 = tail call i32 @__cxa_atexit(ptr nonnull @_ZN5cmsys17RegularExpressionD2Ev, ptr nonnull @_ZZN21cmGeneratorExpression17IsValidTargetNameERKNSt7__cxx1112basic_stringIcSt11char_traitsIcESaIcEEEE19targetNameValidator, ptr nonnull @__dso_handle) #20
  tail call void @__cxa_guard_release(ptr nonnull @_ZGVZN21cmGeneratorExpression17IsValidTargetNameERKNSt7__cxx1112basic_stringIcSt11char_traitsIcESaIcEEEE19targetNameValidator) #20
  br label %9

9:                                                ; preds = %_ZN5cmsys17RegularExpressionC2EPKc.exit, %4, %1
  %10 = tail call noundef ptr @_ZNKSt7__cxx1112basic_stringIcSt11char_traitsIcESaIcEE5c_strEv(ptr noundef nonnull align 8 dereferenceable(32) %0) #20
  %11 = tail call noundef zeroext i1 @_ZNK5cmsys17RegularExpression4findEPKcRNS_22RegularExpressionMatchE(ptr noundef nonnull align 8 dereferenceable(556) @_ZZN21cmGeneratorExpression17IsValidTargetNameERKNSt7__cxx1112basic_stringIcSt11char_traitsIcESaIcEEEE19targetNameValidator, ptr noundef %10, ptr noundef nonnull align 8 dereferenceable(556) @_ZZN21cmGeneratorExpression17IsValidTargetNameERKNSt7__cxx1112basic_stringIcSt11char_traitsIcESaIcEEEE19targetNameValidator)
  ret i1 %11

12:                                               ; preds = %6
  %13 = landingpad { ptr, i32 }
          cleanup
  tail call void @__cxa_guard_abort(ptr nonnull @_ZGVZN21cmGeneratorExpression17IsValidTargetNameERKNSt7__cxx1112basic_stringIcSt11char_traitsIcESaIcEEEE19targetNameValidator) #20
  resume { ptr, i32 } %13
}